; Function Attrs: nounwind uwtable
define dso_local void @node_features_g_node_state(ptr noundef %0, ptr noundef %1) local_unnamed_addr #0 {
  %3 = alloca %struct.timeval, align 8
  %4 = alloca %struct.timeval, align 8
  %5 = alloca [20 x i8], align 16
  %6 = alloca i64, align 8
  call void @llvm.lifetime.start.p0(i64 16, ptr nonnull %3) #9
  call void @llvm.lifetime.start.p0(i64 16, ptr nonnull %4) #9
  call void @llvm.lifetime.start.p0(i64 20, ptr nonnull %5) #9
  call void @llvm.memset.p0.i64(ptr noundef nonnull align 16 dereferenceable(20) %5, i8 0, i64 20, i1 false)
  call void @llvm.lifetime.start.p0(i64 8, ptr nonnull %6) #9
  %7 = call i32 @gettimeofday(ptr noundef nonnull %3, ptr noundef null) #9
  %8 = tail call i32 @pthread_mutex_lock(ptr noundef nonnull @g_context_lock) #9
  %.not = icmp eq i32 %8, 0
  br i1 %.not, label %.preheader, label %11

.preheader:                                       ; preds = %2
  %9 = load i32, ptr @g_context_cnt, align 4
  %10 = icmp sgt i32 %9, 0
  br i1 %10, label %.lr.ph, label %._crit_edge

11:                                               ; preds = %2
  %12 = tail call ptr @__errno_location() #10
  store i32 %8, ptr %12, align 4
  tail call void (ptr, ...) @fatal_abort(ptr noundef nonnull @.str.1, ptr noundef nonnull @__func__.node_features_g_node_state) #11
  unreachable

.lr.ph:                                           ; preds = %.preheader, %.lr.ph
  %indvars.iv = phi i64 [ %indvars.iv.next, %.lr.ph ], [ 0, %.preheader ]
  %13 = load ptr, ptr @ops, align 8
  %14 = getelementptr inbounds nuw %struct.node_features_ops, ptr %13, i64 %indvars.iv, i32 9
  %15 = load ptr, ptr %14, align 8
  tail call void %15(ptr noundef %0, ptr noundef %1) #9
  %indvars.iv.next = add nuw nsw i64 %indvars.iv, 1
  %16 = load i32, ptr @g_context_cnt, align 4
  %17 = sext i32 %16 to i64
  %18 = icmp slt i64 %indvars.iv.next, %17
  br i1 %18, label %.lr.ph, label %._crit_edge, !llvm.loop !21

._crit_edge:                                      ; preds = %.lr.ph, %.preheader
  %19 = tail call i32 @pthread_mutex_unlock(ptr noundef nonnull @g_context_lock) #9
  %.not10 = icmp eq i32 %19, 0
  br i1 %.not10, label %22, label %20

20:                                               ; preds = %._crit_edge
  %21 = tail call ptr @__errno_location() #10
  store i32 %19, ptr %21, align 4
  tail call void (ptr, ...) @fatal_abort(ptr noundef nonnull @.str.7, ptr noundef nonnull @__func__.node_features_g_node_state) #11
  unreachable

22:                                               ; preds = %._crit_edge
  %23 = call i32 @gettimeofday(ptr noundef nonnull %4, ptr noundef null) #9
  call void @slurm_diff_tv_str(ptr noundef nonnull %3, ptr noundef nonnull %4, ptr noundef nonnull %5, i32 noundef 20, ptr noundef nonnull @__func__.node_features_g_node_state, i64 noundef 0, ptr noundef nonnull %6) #9
  call void @llvm.lifetime.end.p0(i64 8, ptr nonnull %6) #9
  call void @llvm.lifetime.end.p0(i64 20, ptr nonnull %5) #9
  call void @llvm.lifetime.end.p0(i64 16, ptr nonnull %4) #9
  call void @llvm.lifetime.end.p0(i64 16, ptr nonnull %3) #9
  ret void
}